; Function Attrs: mustprogress nounwind uwtable
define internal void @_ZL27llama_sampler_temp_ext_freeP13llama_sampler(ptr noundef readonly captures(none) %0) #19 {
  %2 = getelementptr inbounds nuw i8, ptr %0, i64 8
  %3 = load ptr, ptr %2, align 8, !tbaa !9
  %4 = icmp eq ptr %3, null
  br i1 %4, label %6, label %5

5:                                                ; preds = %1
  tail call void @_ZdlPvm(ptr noundef nonnull %3, i64 noundef 12) #32
  br label %6

6:                                                ; preds = %5, %1
  ret void
}